target datalayout = "e-m:e-p270:32:32-p271:32:32-p272:64:64-i64:64-i128:128-f80:128-n8:16:32:64-S128"
target triple = "x86_64-pc-linux-gnu"

%struct.meshopt_Meshlet = type { i32, i32, i32, i32 }

; Function Attrs: mustprogress nounwind uwtable
define internal void @_ZN7meshoptL13finishMeshletER15meshopt_MeshletPh(ptr noundef nonnull align 4 dereferenceable(16) %0, ptr noundef %1) #0 {
  %3 = alloca ptr, align 8
  %4 = alloca ptr, align 8
  %5 = alloca i64, align 8
  store ptr %0, ptr %3, align 8, !tbaa !8
  store ptr %1, ptr %4, align 8, !tbaa !13
  call void @llvm.lifetime.start.p0(i64 8, ptr %5) #11
  %6 = load ptr, ptr %3, align 8, !tbaa !8
  %7 = getelementptr inbounds nuw %struct.meshopt_Meshlet, ptr %6, i32 0, i32 1
  %8 = load i32, ptr %7, align 4, !tbaa !74
  %9 = load ptr, ptr %3, align 8, !tbaa !8
  %10 = getelementptr inbounds nuw %struct.meshopt_Meshlet, ptr %9, i32 0, i32 3
  %11 = load i32, ptr %10, align 4, !tbaa !29
  %12 = mul i32 %11, 3
  %13 = add i32 %8, %12
  %14 = zext i32 %13 to i64
  store i64 %14, ptr %5, align 8, !tbaa !4
  br label %15

15:                                               ; preds = %19, %2
  %16 = load i64, ptr %5, align 8, !tbaa !4
  %17 = and i64 %16, 3
  %18 = icmp ne i64 %17, 0
  br i1 %18, label %19, label %24

19:                                               ; preds = %15
  %20 = load ptr, ptr %4, align 8, !tbaa !13
  %21 = load i64, ptr %5, align 8, !tbaa !4
  %22 = add i64 %21, 1
  store i64 %22, ptr %5, align 8, !tbaa !4
  %23 = getelementptr inbounds nuw i8, ptr %20, i64 %21
  store i8 0, ptr %23, align 1, !tbaa !31
  br label %15, !llvm.loop !77

24:                                               ; preds = %15
  call void @llvm.lifetime.end.p0(i64 8, ptr %5) #11
  ret void
}

; Function Attrs: mustprogress uwtable
define internal noundef zeroext i1 @_ZN7meshoptL13appendMeshletER15meshopt_MeshletjjjPhPS0_PjS2_mmm(ptr noundef nonnull align 4 dereferenceable(16) %0, i32 noundef %1, i32 noundef %2, i32 noundef %3, ptr noundef %4, ptr noundef %5, ptr noundef %6, ptr noundef %7, i64 noundef %8, i64 noundef %9, i64 noundef %10) #2 {
  %12 = alloca ptr, align 8
  %13 = alloca i32, align 4
  %14 = alloca i32, align 4
  %15 = alloca i32, align 4
  %16 = alloca ptr, align 8
  %17 = alloca ptr, align 8
  %18 = alloca ptr, align 8
  %19 = alloca ptr, align 8
  %20 = alloca i64, align 8
  %21 = alloca i64, align 8
  %22 = alloca i64, align 8
  %23 = alloca ptr, align 8
  %24 = alloca ptr, align 8
  %25 = alloca ptr, align 8
  %26 = alloca i8, align 1
  %27 = alloca i32, align 4
  %28 = alloca i64, align 8
  store ptr %0, ptr %12, align 8, !tbaa !8
  store i32 %1, ptr %13, align 4, !tbaa !23
  store i32 %2, ptr %14, align 4, !tbaa !23
  store i32 %3, ptr %15, align 4, !tbaa !23
  store ptr %4, ptr %16, align 8, !tbaa !13
  store ptr %5, ptr %17, align 8, !tbaa !8
  store ptr %6, ptr %18, align 8, !tbaa !11
  store ptr %7, ptr %19, align 8, !tbaa !13
  store i64 %8, ptr %20, align 8, !tbaa !4
  store i64 %9, ptr %21, align 8, !tbaa !4
  store i64 %10, ptr %22, align 8, !tbaa !4
  call void @llvm.lifetime.start.p0(i64 8, ptr %23) #11
  %29 = load ptr, ptr %16, align 8, !tbaa !13
  %30 = load i32, ptr %13, align 4, !tbaa !23
  %31 = zext i32 %30 to i64
  %32 = getelementptr inbounds nuw i8, ptr %29, i64 %31
  store ptr %32, ptr %23, align 8, !tbaa !13
  call void @llvm.lifetime.start.p0(i64 8, ptr %24) #11
  %33 = load ptr, ptr %16, align 8, !tbaa !13
  %34 = load i32, ptr %14, align 4, !tbaa !23
  %35 = zext i32 %34 to i64
  %36 = getelementptr inbounds nuw i8, ptr %33, i64 %35
  store ptr %36, ptr %24, align 8, !tbaa !13
  call void @llvm.lifetime.start.p0(i64 8, ptr %25) #11
  %37 = load ptr, ptr %16, align 8, !tbaa !13
  %38 = load i32, ptr %15, align 4, !tbaa !23
  %39 = zext i32 %38 to i64
  %40 = getelementptr inbounds nuw i8, ptr %37, i64 %39
  store ptr %40, ptr %25, align 8, !tbaa !13
  call void @llvm.lifetime.start.p0(i64 1, ptr %26) #11
  store i8 0, ptr %26, align 1, !tbaa !71
  call void @llvm.lifetime.start.p0(i64 4, ptr %27) #11
  %41 = load ptr, ptr %23, align 8, !tbaa !13
  %42 = load i8, ptr %41, align 1, !tbaa !31
  %43 = zext i8 %42 to i32
  %44 = icmp eq i32 %43, 255
  %45 = zext i1 %44 to i32
  %46 = load ptr, ptr %24, align 8, !tbaa !13
  %47 = load i8, ptr %46, align 1, !tbaa !31
  %48 = zext i8 %47 to i32
  %49 = icmp eq i32 %48, 255
  %50 = zext i1 %49 to i32
  %51 = add nsw i32 %45, %50
  %52 = load ptr, ptr %25, align 8, !tbaa !13
  %53 = load i8, ptr %52, align 1, !tbaa !31
  %54 = zext i8 %53 to i32
  %55 = icmp eq i32 %54, 255
  %56 = zext i1 %55 to i32
  %57 = add nsw i32 %51, %56
  store i32 %57, ptr %27, align 4, !tbaa !23
  %58 = load ptr, ptr %12, align 8, !tbaa !8
  %59 = getelementptr inbounds nuw %struct.meshopt_Meshlet, ptr %58, i32 0, i32 2
  %60 = load i32, ptr %59, align 4, !tbaa !32
  %61 = load i32, ptr %27, align 4, !tbaa !23
  %62 = add i32 %60, %61
  %63 = zext i32 %62 to i64
  %64 = load i64, ptr %21, align 8, !tbaa !4
  %65 = icmp ugt i64 %63, %64
  br i1 %65, label %73, label %66

66:                                               ; preds = %11
  %67 = load ptr, ptr %12, align 8, !tbaa !8
  %68 = getelementptr inbounds nuw %struct.meshopt_Meshlet, ptr %67, i32 0, i32 3
  %69 = load i32, ptr %68, align 4, !tbaa !29
  %70 = zext i32 %69 to i64
  %71 = load i64, ptr %22, align 8, !tbaa !4
  %72 = icmp uge i64 %70, %71
  br i1 %72, label %73, label %126

73:                                               ; preds = %66, %11
  %74 = load ptr, ptr %12, align 8, !tbaa !8
  %75 = load ptr, ptr %17, align 8, !tbaa !8
  %76 = load i64, ptr %20, align 8, !tbaa !4
  %77 = getelementptr inbounds nuw %struct.meshopt_Meshlet, ptr %75, i64 %76
  call void @llvm.memcpy.p0.p0.i64(ptr align 4 %77, ptr align 4 %74, i64 16, i1 false), !tbaa.struct !45
  call void @llvm.lifetime.start.p0(i64 8, ptr %28) #11
  store i64 0, ptr %28, align 8, !tbaa !4
  br label %78

78:                                               ; preds = %99, %73
  %79 = load i64, ptr %28, align 8, !tbaa !4
  %80 = load ptr, ptr %12, align 8, !tbaa !8
  %81 = getelementptr inbounds nuw %struct.meshopt_Meshlet, ptr %80, i32 0, i32 2
  %82 = load i32, ptr %81, align 4, !tbaa !32
  %83 = zext i32 %82 to i64
  %84 = icmp ult i64 %79, %83
  br i1 %84, label %86, label %85

85:                                               ; preds = %78
  call void @llvm.lifetime.end.p0(i64 8, ptr %28) #11
  br label %102

86:                                               ; preds = %78
  %87 = load ptr, ptr %16, align 8, !tbaa !13
  %88 = load ptr, ptr %18, align 8, !tbaa !11
  %89 = load ptr, ptr %12, align 8, !tbaa !8
  %90 = getelementptr inbounds nuw %struct.meshopt_Meshlet, ptr %89, i32 0, i32 0
  %91 = load i32, ptr %90, align 4, !tbaa !67
  %92 = zext i32 %91 to i64
  %93 = load i64, ptr %28, align 8, !tbaa !4
  %94 = add i64 %92, %93
  %95 = getelementptr inbounds nuw i32, ptr %88, i64 %94
  %96 = load i32, ptr %95, align 4, !tbaa !23
  %97 = zext i32 %96 to i64
  %98 = getelementptr inbounds nuw i8, ptr %87, i64 %97
  store i8 -1, ptr %98, align 1, !tbaa !31
  br label %99

99:                                               ; preds = %86
  %100 = load i64, ptr %28, align 8, !tbaa !4
  %101 = add i64 %100, 1
  store i64 %101, ptr %28, align 8, !tbaa !4
  br label %78, !llvm.loop !73

102:                                              ; preds = %85
  %103 = load ptr, ptr %12, align 8, !tbaa !8
  %104 = load ptr, ptr %19, align 8, !tbaa !13
  call void @_ZN7meshoptL13finishMeshletER15meshopt_MeshletPh(ptr noundef nonnull align 4 dereferenceable(16) %103, ptr noundef %104)
  %105 = load ptr, ptr %12, align 8, !tbaa !8
  %106 = getelementptr inbounds nuw %struct.meshopt_Meshlet, ptr %105, i32 0, i32 2
  %107 = load i32, ptr %106, align 4, !tbaa !32
  %108 = load ptr, ptr %12, align 8, !tbaa !8
  %109 = getelementptr inbounds nuw %struct.meshopt_Meshlet, ptr %108, i32 0, i32 0
  %110 = load i32, ptr %109, align 4, !tbaa !67
  %111 = add i32 %110, %107
  store i32 %111, ptr %109, align 4, !tbaa !67
  %112 = load ptr, ptr %12, align 8, !tbaa !8
  %113 = getelementptr inbounds nuw %struct.meshopt_Meshlet, ptr %112, i32 0, i32 3
  %114 = load i32, ptr %113, align 4, !tbaa !29
  %115 = mul i32 %114, 3
  %116 = add i32 %115, 3
  %117 = and i32 %116, -4
  %118 = load ptr, ptr %12, align 8, !tbaa !8
  %119 = getelementptr inbounds nuw %struct.meshopt_Meshlet, ptr %118, i32 0, i32 1
  %120 = load i32, ptr %119, align 4, !tbaa !74
  %121 = add i32 %120, %117
  store i32 %121, ptr %119, align 4, !tbaa !74
  %122 = load ptr, ptr %12, align 8, !tbaa !8
  %123 = getelementptr inbounds nuw %struct.meshopt_Meshlet, ptr %122, i32 0, i32 2
  store i32 0, ptr %123, align 4, !tbaa !32
  %124 = load ptr, ptr %12, align 8, !tbaa !8
  %125 = getelementptr inbounds nuw %struct.meshopt_Meshlet, ptr %124, i32 0, i32 3
  store i32 0, ptr %125, align 4, !tbaa !29
  store i8 1, ptr %26, align 1, !tbaa !71
  br label %126

126:                                              ; preds = %102, %66
  %127 = load ptr, ptr %23, align 8, !tbaa !13
  %128 = load i8, ptr %127, align 1, !tbaa !31
  %129 = zext i8 %128 to i32
  %130 = icmp eq i32 %129, 255
  br i1 %130, label %131, label %149

131:                                              ; preds = %126
  %132 = load ptr, ptr %12, align 8, !tbaa !8
  %133 = getelementptr inbounds nuw %struct.meshopt_Meshlet, ptr %132, i32 0, i32 2
  %134 = load i32, ptr %133, align 4, !tbaa !32
  %135 = trunc i32 %134 to i8
  %136 = load ptr, ptr %23, align 8, !tbaa !13
  store i8 %135, ptr %136, align 1, !tbaa !31
  %137 = load i32, ptr %13, align 4, !tbaa !23
  %138 = load ptr, ptr %18, align 8, !tbaa !11
  %139 = load ptr, ptr %12, align 8, !tbaa !8
  %140 = getelementptr inbounds nuw %struct.meshopt_Meshlet, ptr %139, i32 0, i32 0
  %141 = load i32, ptr %140, align 4, !tbaa !67
  %142 = load ptr, ptr %12, align 8, !tbaa !8
  %143 = getelementptr inbounds nuw %struct.meshopt_Meshlet, ptr %142, i32 0, i32 2
  %144 = load i32, ptr %143, align 4, !tbaa !32
  %145 = add i32 %144, 1
  store i32 %145, ptr %143, align 4, !tbaa !32
  %146 = add i32 %141, %144
  %147 = zext i32 %146 to i64
  %148 = getelementptr inbounds nuw i32, ptr %138, i64 %147
  store i32 %137, ptr %148, align 4, !tbaa !23
  br label %149

149:                                              ; preds = %131, %126
  %150 = load ptr, ptr %24, align 8, !tbaa !13
  %151 = load i8, ptr %150, align 1, !tbaa !31
  %152 = zext i8 %151 to i32
  %153 = icmp eq i32 %152, 255
  br i1 %153, label %154, label %172

154:                                              ; preds = %149
  %155 = load ptr, ptr %12, align 8, !tbaa !8
  %156 = getelementptr inbounds nuw %struct.meshopt_Meshlet, ptr %155, i32 0, i32 2
  %157 = load i32, ptr %156, align 4, !tbaa !32
  %158 = trunc i32 %157 to i8
  %159 = load ptr, ptr %24, align 8, !tbaa !13
  store i8 %158, ptr %159, align 1, !tbaa !31
  %160 = load i32, ptr %14, align 4, !tbaa !23
  %161 = load ptr, ptr %18, align 8, !tbaa !11
  %162 = load ptr, ptr %12, align 8, !tbaa !8
  %163 = getelementptr inbounds nuw %struct.meshopt_Meshlet, ptr %162, i32 0, i32 0
  %164 = load i32, ptr %163, align 4, !tbaa !67
  %165 = load ptr, ptr %12, align 8, !tbaa !8
  %166 = getelementptr inbounds nuw %struct.meshopt_Meshlet, ptr %165, i32 0, i32 2
  %167 = load i32, ptr %166, align 4, !tbaa !32
  %168 = add i32 %167, 1
  store i32 %168, ptr %166, align 4, !tbaa !32
  %169 = add i32 %164, %167
  %170 = zext i32 %169 to i64
  %171 = getelementptr inbounds nuw i32, ptr %161, i64 %170
  store i32 %160, ptr %171, align 4, !tbaa !23
  br label %172

172:                                              ; preds = %154, %149
  %173 = load ptr, ptr %25, align 8, !tbaa !13
  %174 = load i8, ptr %173, align 1, !tbaa !31
  %175 = zext i8 %174 to i32
  %176 = icmp eq i32 %175, 255
  br i1 %176, label %177, label %195

177:                                              ; preds = %172
  %178 = load ptr, ptr %12, align 8, !tbaa !8
  %179 = getelementptr inbounds nuw %struct.meshopt_Meshlet, ptr %178, i32 0, i32 2
  %180 = load i32, ptr %179, align 4, !tbaa !32
  %181 = trunc i32 %180 to i8
  %182 = load ptr, ptr %25, align 8, !tbaa !13
  store i8 %181, ptr %182, align 1, !tbaa !31
  %183 = load i32, ptr %15, align 4, !tbaa !23
  %184 = load ptr, ptr %18, align 8, !tbaa !11
  %185 = load ptr, ptr %12, align 8, !tbaa !8
  %186 = getelementptr inbounds nuw %struct.meshopt_Meshlet, ptr %185, i32 0, i32 0
  %187 = load i32, ptr %186, align 4, !tbaa !67
  %188 = load ptr, ptr %12, align 8, !tbaa !8
  %189 = getelementptr inbounds nuw %struct.meshopt_Meshlet, ptr %188, i32 0, i32 2
  %190 = load i32, ptr %189, align 4, !tbaa !32
  %191 = add i32 %190, 1
  store i32 %191, ptr %189, align 4, !tbaa !32
  %192 = add i32 %187, %190
  %193 = zext i32 %192 to i64
  %194 = getelementptr inbounds nuw i32, ptr %184, i64 %193
  store i32 %183, ptr %194, align 4, !tbaa !23
  br label %195

195:                                              ; preds = %177, %172
  %196 = load ptr, ptr %23, align 8, !tbaa !13
  %197 = load i8, ptr %196, align 1, !tbaa !31
  %198 = load ptr, ptr %19, align 8, !tbaa !13
  %199 = load ptr, ptr %12, align 8, !tbaa !8
  %200 = getelementptr inbounds nuw %struct.meshopt_Meshlet, ptr %199, i32 0, i32 1
  %201 = load i32, ptr %200, align 4, !tbaa !74
  %202 = load ptr, ptr %12, align 8, !tbaa !8
  %203 = getelementptr inbounds nuw %struct.meshopt_Meshlet, ptr %202, i32 0, i32 3
  %204 = load i32, ptr %203, align 4, !tbaa !29
  %205 = mul i32 %204, 3
  %206 = add i32 %201, %205
  %207 = add i32 %206, 0
  %208 = zext i32 %207 to i64
  %209 = getelementptr inbounds nuw i8, ptr %198, i64 %208
  store i8 %197, ptr %209, align 1, !tbaa !31
  %210 = load ptr, ptr %24, align 8, !tbaa !13
  %211 = load i8, ptr %210, align 1, !tbaa !31
  %212 = load ptr, ptr %19, align 8, !tbaa !13
  %213 = load ptr, ptr %12, align 8, !tbaa !8
  %214 = getelementptr inbounds nuw %struct.meshopt_Meshlet, ptr %213, i32 0, i32 1
  %215 = load i32, ptr %214, align 4, !tbaa !74
  %216 = load ptr, ptr %12, align 8, !tbaa !8
  %217 = getelementptr inbounds nuw %struct.meshopt_Meshlet, ptr %216, i32 0, i32 3
  %218 = load i32, ptr %217, align 4, !tbaa !29
  %219 = mul i32 %218, 3
  %220 = add i32 %215, %219
  %221 = add i32 %220, 1
  %222 = zext i32 %221 to i64
  %223 = getelementptr inbounds nuw i8, ptr %212, i64 %222
  store i8 %211, ptr %223, align 1, !tbaa !31
  %224 = load ptr, ptr %25, align 8, !tbaa !13
  %225 = load i8, ptr %224, align 1, !tbaa !31
  %226 = load ptr, ptr %19, align 8, !tbaa !13
  %227 = load ptr, ptr %12, align 8, !tbaa !8
  %228 = getelementptr inbounds nuw %struct.meshopt_Meshlet, ptr %227, i32 0, i32 1
  %229 = load i32, ptr %228, align 4, !tbaa !74
  %230 = load ptr, ptr %12, align 8, !tbaa !8
  %231 = getelementptr inbounds nuw %struct.meshopt_Meshlet, ptr %230, i32 0, i32 3
  %232 = load i32, ptr %231, align 4, !tbaa !29
  %233 = mul i32 %232, 3
  %234 = add i32 %229, %233
  %235 = add i32 %234, 2
  %236 = zext i32 %235 to i64
  %237 = getelementptr inbounds nuw i8, ptr %226, i64 %236
  store i8 %225, ptr %237, align 1, !tbaa !31
  %238 = load ptr, ptr %12, align 8, !tbaa !8
  %239 = getelementptr inbounds nuw %struct.meshopt_Meshlet, ptr %238, i32 0, i32 3
  %240 = load i32, ptr %239, align 4, !tbaa !29
  %241 = add i32 %240, 1
  store i32 %241, ptr %239, align 4, !tbaa !29
  %242 = load i8, ptr %26, align 1, !tbaa !71, !range !75, !noundef !76
  %243 = trunc i8 %242 to i1
  call void @llvm.lifetime.end.p0(i64 4, ptr %27) #11
  call void @llvm.lifetime.end.p0(i64 1, ptr %26) #11
  call void @llvm.lifetime.end.p0(i64 8, ptr %25) #11
  call void @llvm.lifetime.end.p0(i64 8, ptr %24) #11
  call void @llvm.lifetime.end.p0(i64 8, ptr %23) #11
  ret i1 %243
}