; Function Attrs: mustprogress nofree norecurse nosync nounwind memory(argmem: readwrite) uwtable
define internal fastcc noundef zeroext i1 @_ZN7meshoptL13appendMeshletER15meshopt_MeshletjjjPhPS0_PjS2_mmm(ptr noundef nonnull align 4 captures(none) dereferenceable(16) %0, i32 noundef %1, i32 noundef %2, i32 noundef %3, ptr noundef captures(none) %4, ptr noundef writeonly captures(none) %5, ptr noundef captures(none) %6, ptr noundef writeonly captures(none) %7, i64 noundef %8, i64 noundef %9, i64 noundef %10) unnamed_addr #7 {
  %12 = zext i32 %1 to i64
  %13 = getelementptr inbounds nuw i8, ptr %4, i64 %12
  %14 = zext i32 %2 to i64
  %15 = getelementptr inbounds nuw i8, ptr %4, i64 %14
  %16 = zext i32 %3 to i64
  %17 = getelementptr inbounds nuw i8, ptr %4, i64 %16
  %18 = load i8, ptr %13, align 1, !tbaa !42
  %19 = icmp eq i8 %18, -1
  %20 = zext i1 %19 to i32
  %21 = load i8, ptr %15, align 1, !tbaa !42
  %22 = icmp eq i8 %21, -1
  %23 = zext i1 %22 to i32
  %24 = add nuw nsw i32 %23, %20
  %25 = load i8, ptr %17, align 1, !tbaa !42
  %26 = icmp eq i8 %25, -1
  %27 = zext i1 %26 to i32
  %28 = getelementptr inbounds nuw i8, ptr %0, i64 8
  %29 = load i32, ptr %28, align 4, !tbaa !43
  %30 = add i32 %24, %29
  %31 = add i32 %30, %27
  %32 = zext i32 %31 to i64
  %33 = icmp ult i64 %9, %32
  %34 = getelementptr inbounds nuw i8, ptr %0, i64 12
  %35 = load i32, ptr %34, align 4
  %36 = zext i32 %35 to i64
  %.not = icmp ule i64 %10, %36
  %or.cond.not = select i1 %33, i1 true, i1 %.not
  br i1 %or.cond.not, label %37, label %70

37:                                               ; preds = %11
  %38 = getelementptr inbounds nuw %struct.meshopt_Meshlet, ptr %5, i64 %8
  tail call void @llvm.memcpy.p0.p0.i64(ptr noundef nonnull align 4 dereferenceable(16) %38, ptr noundef nonnull align 4 dereferenceable(16) %0, i64 16, i1 false), !tbaa.struct !49
  %39 = load i32, ptr %28, align 4, !tbaa !43
  %.not72 = icmp eq i32 %39, 0
  br i1 %.not72, label %._crit_edge, label %.lr.ph

._crit_edge:                                      ; preds = %.lr.ph, %37
  %40 = phi i32 [ 0, %37 ], [ %67, %.lr.ph ]
  %41 = getelementptr inbounds nuw i8, ptr %0, i64 4
  %.val = load i32, ptr %41, align 4, !tbaa !48
  %.val69 = load i32, ptr %34, align 4, !tbaa !47
  %42 = mul i32 %.val69, 3
  %43 = add i32 %42, %.val
  %44 = zext i32 %43 to i64
  %45 = and i64 %44, 3
  %.not1.i = icmp eq i64 %45, 0
  br i1 %.not1.i, label %_ZN7meshoptL13finishMeshletER15meshopt_MeshletPh.exit, label %.lr.ph.preheader.i

.lr.ph.preheader.i:                               ; preds = %._crit_edge
  %scevgep.i = getelementptr i8, ptr %7, i64 %44
  %46 = zext i32 %.val69 to i64
  %47 = xor i32 %.val, -1
  %48 = zext i32 %47 to i64
  %49 = add nuw nsw i64 %46, %48
  %50 = and i64 %49, 3
  %51 = add nuw nsw i64 %50, 1
  tail call void @llvm.memset.p0.i64(ptr noundef nonnull align 1 dereferenceable(1) %scevgep.i, i8 0, i64 %51, i1 false), !tbaa !42
  %.pre = load i32, ptr %28, align 4, !tbaa !43
  %.pre73 = load i32, ptr %34, align 4, !tbaa !47
  %.pre74 = load i32, ptr %41, align 4, !tbaa !48
  %.pre76 = mul i32 %.pre73, 3
  br label %_ZN7meshoptL13finishMeshletER15meshopt_MeshletPh.exit

_ZN7meshoptL13finishMeshletER15meshopt_MeshletPh.exit: ; preds = %._crit_edge, %.lr.ph.preheader.i
  %.pre-phi = phi i32 [ %42, %._crit_edge ], [ %.pre76, %.lr.ph.preheader.i ]
  %52 = phi i32 [ %.val, %._crit_edge ], [ %.pre74, %.lr.ph.preheader.i ]
  %53 = phi i32 [ %40, %._crit_edge ], [ %.pre, %.lr.ph.preheader.i ]
  %54 = load i32, ptr %0, align 4, !tbaa !55
  %55 = add i32 %54, %53
  store i32 %55, ptr %0, align 4, !tbaa !55
  %56 = add i32 %.pre-phi, 3
  %57 = and i32 %56, -4
  %58 = add i32 %57, %52
  store i32 %58, ptr %41, align 4, !tbaa !48
  store i32 0, ptr %28, align 4, !tbaa !43
  store i32 0, ptr %34, align 4, !tbaa !47
  %.pre75 = load i8, ptr %13, align 1, !tbaa !42
  br label %70

.lr.ph:                                           ; preds = %37, %.lr.ph
  %.071 = phi i64 [ %66, %.lr.ph ], [ 0, %37 ]
  %59 = load i32, ptr %0, align 4, !tbaa !55
  %60 = zext i32 %59 to i64
  %61 = getelementptr inbounds nuw i32, ptr %6, i64 %.071
  %62 = getelementptr inbounds nuw i32, ptr %61, i64 %60
  %63 = load i32, ptr %62, align 4, !tbaa !16
  %64 = zext i32 %63 to i64
  %65 = getelementptr inbounds nuw i8, ptr %4, i64 %64
  store i8 -1, ptr %65, align 1, !tbaa !42
  %66 = add nuw nsw i64 %.071, 1
  %67 = load i32, ptr %28, align 4, !tbaa !43
  %68 = zext i32 %67 to i64
  %69 = icmp samesign ult i64 %66, %68
  br i1 %69, label %.lr.ph, label %._crit_edge, !llvm.loop !59

70:                                               ; preds = %11, %_ZN7meshoptL13finishMeshletER15meshopt_MeshletPh.exit
  %71 = phi i32 [ %29, %11 ], [ 0, %_ZN7meshoptL13finishMeshletER15meshopt_MeshletPh.exit ]
  %72 = phi i8 [ %18, %11 ], [ %.pre75, %_ZN7meshoptL13finishMeshletER15meshopt_MeshletPh.exit ]
  %73 = icmp eq i8 %72, -1
  br i1 %73, label %74, label %82

74:                                               ; preds = %70
  %75 = trunc i32 %71 to i8
  store i8 %75, ptr %13, align 1, !tbaa !42
  %76 = load i32, ptr %0, align 4, !tbaa !55
  %77 = load i32, ptr %28, align 4, !tbaa !43
  %78 = add i32 %77, 1
  store i32 %78, ptr %28, align 4, !tbaa !43
  %79 = add i32 %77, %76
  %80 = zext i32 %79 to i64
  %81 = getelementptr inbounds nuw i32, ptr %6, i64 %80
  store i32 %1, ptr %81, align 4, !tbaa !16
  br label %82

82:                                               ; preds = %74, %70
  %83 = load i8, ptr %15, align 1, !tbaa !42
  %84 = icmp eq i8 %83, -1
  br i1 %84, label %85, label %94

85:                                               ; preds = %82
  %86 = load i32, ptr %28, align 4, !tbaa !43
  %87 = trunc i32 %86 to i8
  store i8 %87, ptr %15, align 1, !tbaa !42
  %88 = load i32, ptr %0, align 4, !tbaa !55
  %89 = load i32, ptr %28, align 4, !tbaa !43
  %90 = add i32 %89, 1
  store i32 %90, ptr %28, align 4, !tbaa !43
  %91 = add i32 %89, %88
  %92 = zext i32 %91 to i64
  %93 = getelementptr inbounds nuw i32, ptr %6, i64 %92
  store i32 %2, ptr %93, align 4, !tbaa !16
  br label %94

94:                                               ; preds = %85, %82
  %95 = load i8, ptr %17, align 1, !tbaa !42
  %96 = icmp eq i8 %95, -1
  br i1 %96, label %97, label %106

97:                                               ; preds = %94
  %98 = load i32, ptr %28, align 4, !tbaa !43
  %99 = trunc i32 %98 to i8
  store i8 %99, ptr %17, align 1, !tbaa !42
  %100 = load i32, ptr %0, align 4, !tbaa !55
  %101 = load i32, ptr %28, align 4, !tbaa !43
  %102 = add i32 %101, 1
  store i32 %102, ptr %28, align 4, !tbaa !43
  %103 = add i32 %101, %100
  %104 = zext i32 %103 to i64
  %105 = getelementptr inbounds nuw i32, ptr %6, i64 %104
  store i32 %3, ptr %105, align 4, !tbaa !16
  br label %106

106:                                              ; preds = %97, %94
  %107 = load i8, ptr %13, align 1, !tbaa !42
  %108 = getelementptr inbounds nuw i8, ptr %0, i64 4
  %109 = load i32, ptr %108, align 4, !tbaa !48
  %110 = load i32, ptr %34, align 4, !tbaa !47
  %111 = mul i32 %110, 3
  %112 = add i32 %111, %109
  %113 = zext i32 %112 to i64
  %114 = getelementptr inbounds nuw i8, ptr %7, i64 %113
  store i8 %107, ptr %114, align 1, !tbaa !42
  %115 = load i8, ptr %15, align 1, !tbaa !42
  %116 = load i32, ptr %108, align 4, !tbaa !48
  %117 = load i32, ptr %34, align 4, !tbaa !47
  %118 = mul i32 %117, 3
  %119 = add i32 %116, 1
  %120 = add i32 %119, %118
  %121 = zext i32 %120 to i64
  %122 = getelementptr inbounds nuw i8, ptr %7, i64 %121
  store i8 %115, ptr %122, align 1, !tbaa !42
  %123 = load i8, ptr %17, align 1, !tbaa !42
  %124 = load i32, ptr %108, align 4, !tbaa !48
  %125 = load i32, ptr %34, align 4, !tbaa !47
  %126 = mul i32 %125, 3
  %127 = add i32 %124, 2
  %128 = add i32 %127, %126
  %129 = zext i32 %128 to i64
  %130 = getelementptr inbounds nuw i8, ptr %7, i64 %129
  store i8 %123, ptr %130, align 1, !tbaa !42
  %131 = load i32, ptr %34, align 4, !tbaa !47
  %132 = add i32 %131, 1
  store i32 %132, ptr %34, align 4, !tbaa !47
  ret i1 %or.cond.not
}